target datalayout = "e-m:e-p270:32:32-p271:32:32-p272:64:64-i64:64-i128:128-f80:128-n8:16:32:64-S128"
target triple = "x86_64-pc-linux-gnu"

%class.symbol = type { ptr }
%"class.dt::solver" = type { %"class.euf::th_euf_solver.base", %"class.datatype::util", %class.array_util, %class.seq_util, %"struct.dt::solver::stats", %class.ptr_vector.6, %class.union_find, %class.ref_vector, %class.ptr_vector, %class.ptr_vector, %class.svector.8, %class.obj_map, %class.svector.10, %class.svector.12, %class.ptr_vector, %class.ptr_vector }
%"class.euf::th_euf_solver.base" = type <{ %"class.euf::th_solver", ptr, %class.ptr_vector, %class.svector.1, i32 }>
%"class.euf::th_solver" = type { %"class.sat::extension", %"class.euf::th_model_builder", %"class.euf::th_decompile", %"class.euf::th_internalizer", ptr }
%"class.sat::extension" = type { ptr, i8, i32, %class.symbol, ptr }
%"class.euf::th_model_builder" = type { ptr }
%"class.euf::th_decompile" = type { ptr }
%"class.euf::th_internalizer" = type { ptr, %class.ptr_vector, %class.svector }
%class.svector = type { %class.vector.0 }
%class.vector.0 = type { ptr }
%class.svector.1 = type { %class.vector.2 }
%class.vector.2 = type { ptr }
%"class.datatype::util" = type { ptr, i32, ptr }
%class.array_util = type { %class.array_recognizers, ptr }
%class.array_recognizers = type { i32 }
%class.seq_util = type { ptr, ptr, ptr, i32, [4 x i8], %"class.seq_util::str", %"class.seq_util::rex" }
%"class.seq_util::str" = type <{ ptr, ptr, i32, [4 x i8] }>
%"class.seq_util::rex" = type { ptr, ptr, i32, %class.vector.3, %class.ref_vector, %"struct.seq_util::rex::info", %"struct.seq_util::rex::info" }
%class.vector.3 = type { ptr }
%"struct.seq_util::rex::info" = type { i32, i8, i32, i32 }
%"struct.dt::solver::stats" = type { i32, i32, i32, i32, i32 }
%class.ptr_vector.6 = type { %class.vector.7 }
%class.vector.7 = type { ptr }
%class.union_find = type { ptr, ptr, %class.svector.1, %class.svector.1, %class.svector.1, %"class.union_find<dt::solver>::mk_var_trail" }
%"class.union_find<dt::solver>::mk_var_trail" = type { %class.trail, ptr }
%class.trail = type { ptr }
%class.ref_vector = type { %class.ref_vector_core }
%class.ref_vector_core = type { %class.ref_manager_wrapper, %class.ptr_vector.4 }
%class.ref_manager_wrapper = type { ptr }
%class.ptr_vector.4 = type { %class.vector.5 }
%class.vector.5 = type { ptr }
%class.svector.8 = type { %class.vector.9 }
%class.vector.9 = type { ptr }
%class.obj_map = type { %class.core_hashtable }
%class.core_hashtable = type <{ ptr, i32, i32, i32, [4 x i8] }>
%class.svector.10 = type { %class.vector.11 }
%class.vector.11 = type { ptr }
%class.svector.12 = type { %class.vector.13 }
%class.vector.13 = type { ptr }
%class.ptr_vector = type { %class.vector }
%class.vector = type { ptr }
%"class.euf::justification" = type { i32, %union.anon.43, %union.anon.44 }
%union.anon.43 = type { ptr }
%union.anon.44 = type { ptr }
%"class.euf::enode" = type { ptr, i8, i8, i8, i8, i8, i8, i8, i8, i8, i32, i32, i32, i32, i32, i32, %class.ptr_vector, ptr, ptr, ptr, ptr, %class.id_var_list, %"class.euf::justification", %"class.euf::justification", i32, i8, %class.approx_set, %class.approx_set, [0 x ptr] }
%class.id_var_list = type { i32, ptr }
%class.approx_set = type { %class.approx_set_tpl.195 }
%class.approx_set_tpl.195 = type { i64 }

; Function Attrs: mustprogress uwtable
define linkonce_odr hidden noundef nonnull align 8 dereferenceable(8) ptr @_ZN6vectorIPN3euf5enodeELb0EjE9push_backERKS2_(ptr noundef nonnull align 8 dereferenceable(8) %0, ptr noundef nonnull align 8 dereferenceable(8) %1) #4 comdat align 2 {
  %3 = alloca ptr, align 8
  %4 = alloca ptr, align 8
  store ptr %0, ptr %3, align 8, !tbaa !419
  store ptr %1, ptr %4, align 8, !tbaa !444
  %5 = load ptr, ptr %3, align 8
  %6 = getelementptr inbounds nuw %class.vector, ptr %5, i32 0, i32 0
  %7 = load ptr, ptr %6, align 8, !tbaa !446
  %8 = icmp eq ptr %7, null
  br i1 %8, label %19, label %9

9:                                                ; preds = %2
  %10 = getelementptr inbounds nuw %class.vector, ptr %5, i32 0, i32 0
  %11 = load ptr, ptr %10, align 8, !tbaa !446
  %12 = getelementptr inbounds i32, ptr %11, i64 -1
  %13 = load i32, ptr %12, align 4, !tbaa !10
  %14 = getelementptr inbounds nuw %class.vector, ptr %5, i32 0, i32 0
  %15 = load ptr, ptr %14, align 8, !tbaa !446
  %16 = getelementptr inbounds i32, ptr %15, i64 -2
  %17 = load i32, ptr %16, align 4, !tbaa !10
  %18 = icmp eq i32 %13, %17
  br i1 %18, label %19, label %20

19:                                               ; preds = %9, %2
  call void @_ZN6vectorIPN3euf5enodeELb0EjE13expand_vectorEv(ptr noundef nonnull align 8 dereferenceable(8) %5)
  br label %20

20:                                               ; preds = %19, %9
  %21 = getelementptr inbounds nuw %class.vector, ptr %5, i32 0, i32 0
  %22 = load ptr, ptr %21, align 8, !tbaa !446
  %23 = getelementptr inbounds nuw %class.vector, ptr %5, i32 0, i32 0
  %24 = load ptr, ptr %23, align 8, !tbaa !446
  %25 = getelementptr inbounds i32, ptr %24, i64 -1
  %26 = load i32, ptr %25, align 4, !tbaa !10
  %27 = zext i32 %26 to i64
  %28 = getelementptr inbounds nuw ptr, ptr %22, i64 %27
  %29 = load ptr, ptr %4, align 8, !tbaa !444
  %30 = load ptr, ptr %29, align 8, !tbaa !441
  store ptr %30, ptr %28, align 8, !tbaa !441
  %31 = getelementptr inbounds nuw %class.vector, ptr %5, i32 0, i32 0
  %32 = load ptr, ptr %31, align 8, !tbaa !446
  %33 = getelementptr inbounds i32, ptr %32, i64 -1
  %34 = load i32, ptr %33, align 4, !tbaa !10
  %35 = add i32 %34, 1
  store i32 %35, ptr %33, align 4, !tbaa !10
  ret ptr %5
}

; Function Attrs: mustprogress nounwind uwtable
define linkonce_odr hidden void @_ZN3euf5enode5mark1Ev(ptr noundef nonnull align 8 dereferenceable(176) %0) #5 comdat align 2 {
  %2 = alloca ptr, align 8
  store ptr %0, ptr %2, align 8, !tbaa !441
  %3 = load ptr, ptr %2, align 8
  %4 = getelementptr inbounds nuw %"class.euf::enode", ptr %3, i32 0, i32 1
  store i8 1, ptr %4, align 8, !tbaa !458
  ret void
}

; Function Attrs: mustprogress nounwind uwtable
define linkonce_odr hidden noundef ptr @_ZNK3euf5enode8get_rootEv(ptr noundef nonnull align 8 dereferenceable(176) %0) #5 comdat align 2 {
  %2 = alloca ptr, align 8
  store ptr %0, ptr %2, align 8, !tbaa !441
  %3 = load ptr, ptr %2, align 8
  %4 = getelementptr inbounds nuw %"class.euf::enode", ptr %3, i32 0, i32 18
  %5 = load ptr, ptr %4, align 8, !tbaa !466
  ret ptr %5
}

; Function Attrs: mustprogress uwtable
define hidden void @_ZN2dt6solver16oc_mark_on_stackEPN3euf5enodeE(ptr noundef nonnull align 8 dereferenceable(472) %0, ptr noundef %1) #4 align 2 {
  %3 = alloca ptr, align 8
  %4 = alloca ptr, align 8
  store ptr %0, ptr %3, align 8, !tbaa !3
  store ptr %1, ptr %4, align 8, !tbaa !441
  %5 = load ptr, ptr %3, align 8
  %6 = load ptr, ptr %4, align 8, !tbaa !441
  %7 = call noundef ptr @_ZNK3euf5enode8get_rootEv(ptr noundef nonnull align 8 dereferenceable(176) %6)
  store ptr %7, ptr %4, align 8, !tbaa !441
  %8 = load ptr, ptr %4, align 8, !tbaa !441
  call void @_ZN3euf5enode5mark1Ev(ptr noundef nonnull align 8 dereferenceable(176) %8)
  %9 = getelementptr inbounds nuw %"class.dt::solver", ptr %5, i32 0, i32 8
  %10 = call noundef nonnull align 8 dereferenceable(8) ptr @_ZN6vectorIPN3euf5enodeELb0EjE9push_backERKS2_(ptr noundef nonnull align 8 dereferenceable(8) %9, ptr noundef nonnull align 8 dereferenceable(8) %4)
  ret void
}