; Function Attrs: mustprogress uwtable
define hidden void @_ZN2dt6solver16oc_mark_on_stackEPN3euf5enodeE(ptr noundef nonnull align 8 dereferenceable(472) %0, ptr noundef readonly captures(none) %1) local_unnamed_addr #3 align 2 {
  %3 = getelementptr inbounds nuw i8, ptr %1, i64 64
  %4 = load ptr, ptr %3, align 8, !tbaa !469
  %5 = getelementptr inbounds nuw i8, ptr %4, i64 8
  store i8 1, ptr %5, align 8, !tbaa !462
  %6 = getelementptr inbounds nuw i8, ptr %0, i64 392
  %7 = load ptr, ptr %6, align 8, !tbaa !432
  %8 = icmp eq ptr %7, null
  br i1 %8, label %15, label %9

9:                                                ; preds = %2
  %10 = getelementptr inbounds i8, ptr %7, i64 -4
  %11 = load i32, ptr %10, align 4, !tbaa !387
  %12 = getelementptr inbounds i8, ptr %7, i64 -8
  %13 = load i32, ptr %12, align 4, !tbaa !387
  %14 = icmp eq i32 %11, %13
  br i1 %14, label %15, label %_ZN6vectorIPN3euf5enodeELb0EjE9push_backERKS2_.exit

15:                                               ; preds = %9, %2
  tail call void @_ZN6vectorIPN3euf5enodeELb0EjE13expand_vectorEv(ptr noundef nonnull align 8 dereferenceable(8) %6)
  %.pre.i = load ptr, ptr %6, align 8, !tbaa !432
  %.phi.trans.insert.i = getelementptr inbounds i8, ptr %.pre.i, i64 -4
  %.pre2.i = load i32, ptr %.phi.trans.insert.i, align 4, !tbaa !387
  br label %_ZN6vectorIPN3euf5enodeELb0EjE9push_backERKS2_.exit

_ZN6vectorIPN3euf5enodeELb0EjE9push_backERKS2_.exit: ; preds = %9, %15
  %16 = phi i32 [ %.pre2.i, %15 ], [ %11, %9 ]
  %17 = phi ptr [ %.pre.i, %15 ], [ %7, %9 ]
  %18 = getelementptr inbounds i8, ptr %17, i64 -4
  %19 = zext i32 %16 to i64
  %20 = getelementptr inbounds nuw ptr, ptr %17, i64 %19
  store ptr %4, ptr %20, align 8, !tbaa !451
  %21 = add i32 %16, 1
  store i32 %21, ptr %18, align 4, !tbaa !387
  ret void
}